#include <math.h>
#include <stdio.h>
#include <stdlib.h>
#include <string.h>


int f(int x){
	int i,num=0;
	for(i=1;i<=x;i++){
		if(x%i==0) num++;
	}
	if(num==2) return 1;
	else return 0;
}

int main(){
	int i,n,e=2,num=0;
	scanf("%d",&n);
	for(i=2;i<=n;i++){
		if(f(i)&&i==e+2){
			printf("%d %d\n",e,i);
			num++;
		}
		if(f(i)) e=i;
	}
	if(num==0) printf("empty");
	return 0;
}